; Function Attrs: mustprogress uwtable
define hidden void @_ZN19OpenColorIO_v2_5dev15L2LBaseRenderer10updateDataERSt10shared_ptrIKNS_9LogOpDataEE(ptr noundef nonnull align 8 dereferenceable(88) initializes((8, 12)) %0, ptr noundef nonnull readonly align 8 captures(none) dereferenceable(16) %1) unnamed_addr #3 align 2 {
  %3 = load ptr, ptr %1, align 8, !tbaa !3
  %4 = tail call noundef double @_ZNK19OpenColorIO_v2_5dev9LogOpData7getBaseEv(ptr noundef nonnull align 8 dereferenceable(252) %3) #26
  %5 = fptrunc double %4 to float
  %6 = getelementptr inbounds nuw i8, ptr %0, i64 8
  store float %5, ptr %6, align 8, !tbaa !96
  %7 = load ptr, ptr %1, align 8, !tbaa !3
  %8 = getelementptr inbounds nuw i8, ptr %7, i64 168
  %9 = getelementptr inbounds nuw i8, ptr %0, i64 16
  %10 = tail call noundef nonnull align 8 dereferenceable(24) ptr @_ZNSt6vectorIdSaIdEEaSERKS1_(ptr noundef nonnull align 8 dereferenceable(24) %9, ptr noundef nonnull align 8 dereferenceable(24) %8)
  %11 = load ptr, ptr %1, align 8, !tbaa !3
  %12 = getelementptr inbounds nuw i8, ptr %11, i64 192
  %13 = getelementptr inbounds nuw i8, ptr %0, i64 40
  %14 = tail call noundef nonnull align 8 dereferenceable(24) ptr @_ZNSt6vectorIdSaIdEEaSERKS1_(ptr noundef nonnull align 8 dereferenceable(24) %13, ptr noundef nonnull align 8 dereferenceable(24) %12)
  %15 = load ptr, ptr %1, align 8, !tbaa !3
  %16 = getelementptr inbounds nuw i8, ptr %15, i64 216
  %17 = getelementptr inbounds nuw i8, ptr %0, i64 64
  %18 = tail call noundef nonnull align 8 dereferenceable(24) ptr @_ZNSt6vectorIdSaIdEEaSERKS1_(ptr noundef nonnull align 8 dereferenceable(24) %17, ptr noundef nonnull align 8 dereferenceable(24) %16)
  ret void
}